; ModuleID = '61/876.c'
source_filename = "61/876.c"
target datalayout = "e-m:e-p270:32:32-p271:32:32-p272:64:64-i64:64-f80:128-n8:16:32:64-S128"
target triple = "x86_64-pc-linux-gnu"

@.str = private unnamed_addr constant [3 x i8] c"%d\00", align 1
@.str.1 = private unnamed_addr constant [4 x i8] c"%d\0A\00", align 1

; Function Attrs: noinline nounwind uwtable
define dso_local i32 @main() #0 {
  %1 = alloca i32, align 4
  %2 = alloca i32, align 4
  %3 = alloca i32, align 4
  %4 = alloca i32, align 4
  %5 = alloca [30 x i32], align 16
  %6 = alloca [20 x i32], align 16
  store i32 0, i32* %1, align 4
  %7 = bitcast [30 x i32]* %5 to i8*
  call void @llvm.memset.p0i8.i64(i8* align 16 %7, i8 0, i64 120, i1 false)
  %8 = bitcast i8* %7 to <{ i32, [29 x i32] }>*
  %9 = getelementptr inbounds <{ i32, [29 x i32] }>, <{ i32, [29 x i32] }>* %8, i32 0, i32 0
  store i32 1, i32* %9, align 16
  %10 = getelementptr inbounds [30 x i32], [30 x i32]* %5, i64 0, i64 0
  %11 = load i32, i32* %10, align 16
  %12 = getelementptr inbounds [30 x i32], [30 x i32]* %5, i64 0, i64 1
  store i32 %11, i32* %12, align 4
  store i32 2, i32* %2, align 4
  br label %13

13:                                               ; preds = %31, %0
  %14 = load i32, i32* %2, align 4
  %15 = icmp slt i32 %14, 30
  br i1 %15, label %16, label %34

16:                                               ; preds = %13
  %17 = load i32, i32* %2, align 4
  %18 = sub nsw i32 %17, 2
  %19 = sext i32 %18 to i64
  %20 = getelementptr inbounds [30 x i32], [30 x i32]* %5, i64 0, i64 %19
  %21 = load i32, i32* %20, align 4
  %22 = load i32, i32* %2, align 4
  %23 = sub nsw i32 %22, 1
  %24 = sext i32 %23 to i64
  %25 = getelementptr inbounds [30 x i32], [30 x i32]* %5, i64 0, i64 %24
  %26 = load i32, i32* %25, align 4
  %27 = add nsw i32 %21, %26
  %28 = load i32, i32* %2, align 4
  %29 = sext i32 %28 to i64
  %30 = getelementptr inbounds [30 x i32], [30 x i32]* %5, i64 0, i64 %29
  store i32 %27, i32* %30, align 4
  br label %31

31:                                               ; preds = %16
  %32 = load i32, i32* %2, align 4
  %33 = add nsw i32 %32, 1
  store i32 %33, i32* %2, align 4
  br label %13

34:                                               ; preds = %13
  %35 = call i32 (i8*, ...) @__isoc99_scanf(i8* getelementptr inbounds ([3 x i8], [3 x i8]* @.str, i64 0, i64 0), i32* %4)
  store i32 0, i32* %3, align 4
  br label %36

36:                                               ; preds = %45, %34
  %37 = load i32, i32* %3, align 4
  %38 = load i32, i32* %4, align 4
  %39 = icmp slt i32 %37, %38
  br i1 %39, label %40, label %48

40:                                               ; preds = %36
  %41 = load i32, i32* %3, align 4
  %42 = sext i32 %41 to i64
  %43 = getelementptr inbounds [20 x i32], [20 x i32]* %6, i64 0, i64 %42
  %44 = call i32 (i8*, ...) @__isoc99_scanf(i8* getelementptr inbounds ([3 x i8], [3 x i8]* @.str, i64 0, i64 0), i32* %43)
  br label %45

45:                                               ; preds = %40
  %46 = load i32, i32* %3, align 4
  %47 = add nsw i32 %46, 1
  store i32 %47, i32* %3, align 4
  br label %36

48:                                               ; preds = %36
  store i32 0, i32* %3, align 4
  br label %49

49:                                               ; preds = %63, %48
  %50 = load i32, i32* %3, align 4
  %51 = load i32, i32* %4, align 4
  %52 = icmp slt i32 %50, %51
  br i1 %52, label %53, label %66

53:                                               ; preds = %49
  %54 = load i32, i32* %3, align 4
  %55 = sext i32 %54 to i64
  %56 = getelementptr inbounds [20 x i32], [20 x i32]* %6, i64 0, i64 %55
  %57 = load i32, i32* %56, align 4
  %58 = sub nsw i32 %57, 1
  %59 = sext i32 %58 to i64
  %60 = getelementptr inbounds [30 x i32], [30 x i32]* %5, i64 0, i64 %59
  %61 = load i32, i32* %60, align 4
  %62 = call i32 (i8*, ...) @printf(i8* getelementptr inbounds ([4 x i8], [4 x i8]* @.str.1, i64 0, i64 0), i32 %61)
  br label %63

63:                                               ; preds = %53
  %64 = load i32, i32* %3, align 4
  %65 = add nsw i32 %64, 1
  store i32 %65, i32* %3, align 4
  br label %49

66:                                               ; preds = %49
  %67 = call i32 @getchar()
  %68 = call i32 @getchar()
  %69 = call i32 @getchar()
  %70 = load i32, i32* %1, align 4
  ret i32 %70
}

; Function Attrs: argmemonly nounwind willreturn
declare void @llvm.memset.p0i8.i64(i8* nocapture writeonly, i8, i64, i1 immarg) #1

declare dso_local i32 @__isoc99_scanf(i8*, ...) #2

declare dso_local i32 @printf(i8*, ...) #2

declare dso_local i32 @getchar() #2


!llvm.module.flags = !{!0}
!llvm.ident = !{!1}

!0 = !{i32 1, !"wchar_size", i32 4}
!1 = !{!"clang version 10.0.0-4ubuntu1 "}
